; Function Attrs: nofree nounwind uwtable
define internal void @anetSetError(ptr noundef %err, ptr nocapture noundef readonly %fmt, ...) unnamed_addr #4 {
entry:
  %ap = alloca [1 x %struct.__va_list_tag], align 16
  %tobool.not = icmp eq ptr %err, null
  br i1 %tobool.not, label %return, label %if.end

if.end:                                           ; preds = %entry
  call void @llvm.va_start.p0(ptr nonnull %ap)
  %call = call i32 @vsnprintf(ptr noundef nonnull %err, i64 noundef 256, ptr noundef %fmt, ptr noundef nonnull %ap) #10
  call void @llvm.va_end.p0(ptr nonnull %ap)
  br label %return

return:                                           ; preds = %entry, %if.end
  ret void
}